; Function Attrs: mustprogress uwtable
define void @_ZN3gmx23NeighborSearchSignaller6signalEld(ptr nocapture noundef nonnull readonly align 8 dereferenceable(56) %0, i64 noundef %1, double noundef %2) unnamed_addr #0 align 2 {
  %4 = alloca i64, align 8
  %5 = alloca double, align 8
  %6 = getelementptr inbounds i8, ptr %0, i64 32
  %7 = load i64, ptr %6, align 8
  %.not.i = icmp eq i64 %7, 0
  br i1 %.not.i, label %_Z11do_per_stepll.exit, label %8

8:                                                ; preds = %3
  %9 = srem i64 %1, %7
  %10 = icmp eq i64 %9, 0
  br label %_Z11do_per_stepll.exit

_Z11do_per_stepll.exit:                           ; preds = %3, %8
  %.0.i = phi i1 [ %10, %8 ], [ false, %3 ]
  %11 = getelementptr inbounds i8, ptr %0, i64 40
  %12 = load i64, ptr %11, align 8
  %13 = icmp eq i64 %12, %1
  %or.cond = select i1 %.0.i, i1 true, i1 %13
  br i1 %or.cond, label %14, label %_ZN3gmxL15runAllCallbacksERKSt6vectorISt8functionIFvldEESaIS3_EEld.exit

14:                                               ; preds = %_Z11do_per_stepll.exit
  %15 = getelementptr inbounds i8, ptr %0, i64 8
  %.val = load ptr, ptr %15, align 8
  %16 = getelementptr inbounds i8, ptr %0, i64 16
  %.val6 = load ptr, ptr %16, align 8
  %.not4.i = icmp eq ptr %.val, %.val6
  br i1 %.not4.i, label %_ZN3gmxL15runAllCallbacksERKSt6vectorISt8functionIFvldEESaIS3_EEld.exit, label %.lr.ph.i

.lr.ph.i:                                         ; preds = %14, %_ZNKSt8functionIFvldEEclEld.exit.i
  %.sroa.01.05.i = phi ptr [ %22, %_ZNKSt8functionIFvldEEclEld.exit.i ], [ %.val, %14 ]
  call void @llvm.lifetime.start.p0(i64 8, ptr nonnull %4)
  call void @llvm.lifetime.start.p0(i64 8, ptr nonnull %5)
  store i64 %1, ptr %4, align 8
  store double %2, ptr %5, align 8
  %17 = getelementptr inbounds i8, ptr %.sroa.01.05.i, i64 16
  %18 = load ptr, ptr %17, align 8
  %.not.i.i.i = icmp eq ptr %18, null
  br i1 %.not.i.i.i, label %19, label %_ZNKSt8functionIFvldEEclEld.exit.i

19:                                               ; preds = %.lr.ph.i
  call void @_ZSt25__throw_bad_function_callv() #14
  unreachable

_ZNKSt8functionIFvldEEclEld.exit.i:               ; preds = %.lr.ph.i
  %20 = getelementptr inbounds i8, ptr %.sroa.01.05.i, i64 24
  %21 = load ptr, ptr %20, align 8
  call void %21(ptr noundef nonnull align 8 dereferenceable(16) %.sroa.01.05.i, ptr noundef nonnull align 8 dereferenceable(8) %4, ptr noundef nonnull align 8 dereferenceable(8) %5)
  call void @llvm.lifetime.end.p0(i64 8, ptr nonnull %4)
  call void @llvm.lifetime.end.p0(i64 8, ptr nonnull %5)
  %22 = getelementptr inbounds i8, ptr %.sroa.01.05.i, i64 32
  %.not.i7 = icmp eq ptr %22, %.val6
  br i1 %.not.i7, label %_ZN3gmxL15runAllCallbacksERKSt6vectorISt8functionIFvldEESaIS3_EEld.exit, label %.lr.ph.i

_ZN3gmxL15runAllCallbacksERKSt6vectorISt8functionIFvldEESaIS3_EEld.exit: ; preds = %_ZNKSt8functionIFvldEEclEld.exit.i, %14, %_Z11do_per_stepll.exit
  ret void
}